target datalayout = "e-m:e-p270:32:32-p271:32:32-p272:64:64-i64:64-i128:128-f80:128-n8:16:32:64-S128"
target triple = "x86_64-pc-linux-gnu"

%struct._packet_info = type { ptr, ptr, i32, i32, %struct.nstime_t, %struct.nstime_t, %struct.nstime_t, i8, ptr, ptr, ptr, ptr, %struct._address, %struct._address, %struct._address, %struct._address, %struct._address, %struct._address, i32, ptr, i8, [3 x i8], %struct.anon, i32, i32, i32, i32, ptr, i8, ptr, ptr, i16, i16, i32, i32, i16, i32, i32, ptr, ptr, ptr, i8, i8, i16, i16, i16, i32, i16, i16, ptr, ptr, ptr, ptr, ptr, i32, i32 }
%struct.nstime_t = type { i64, i32 }
%struct._address = type { i32, i32, ptr, ptr }
%struct.anon = type { i8, [3 x i8] }

@.str.6 = private unnamed_addr constant [8 x i8] c"IPv4 %s\00", align 1
@.str.8 = private unnamed_addr constant [8 x i8] c"IPv6 %s\00", align 1
@hf_gtpv2_ip_address_ipv4 = internal global i32 0, align 4
@hf_gtpv2_ip_address_ipv6 = internal global i32 0, align 4

; Function Attrs: null_pointer_is_valid sspstrong uwtable
define internal void @dissect_gtpv2_ip_address(ptr noundef %0, ptr noundef %1, ptr noundef %2, ptr noundef %3, i16 noundef zeroext %4, i8 noundef zeroext %5, i8 noundef zeroext %6, ptr noundef %7) #1 {
  %9 = alloca ptr, align 8
  %10 = alloca ptr, align 8
  %11 = alloca ptr, align 8
  %12 = alloca ptr, align 8
  %13 = alloca i16, align 2
  %14 = alloca i8, align 1
  %15 = alloca i8, align 1
  %16 = alloca ptr, align 8
  %17 = alloca i32, align 4
  store ptr %0, ptr %9, align 8
  store ptr %1, ptr %10, align 8
  store ptr %2, ptr %11, align 8
  store ptr %3, ptr %12, align 8
  store i16 %4, ptr %13, align 2
  store i8 %5, ptr %14, align 1
  store i8 %6, ptr %15, align 1
  store ptr %7, ptr %16, align 8
  call void @llvm.lifetime.start.p0(i64 4, ptr %17) #11
  store i32 0, ptr %17, align 4
  %18 = load i16, ptr %13, align 2
  %19 = zext i16 %18 to i32
  %20 = icmp eq i32 %19, 4
  br i1 %20, label %21, label %36

21:                                               ; preds = %8
  %22 = load ptr, ptr %11, align 8
  %23 = load i32, ptr @hf_gtpv2_ip_address_ipv4, align 4
  %24 = load ptr, ptr %9, align 8
  %25 = load i32, ptr %17, align 4
  %26 = load i16, ptr %13, align 2
  %27 = zext i16 %26 to i32
  %28 = call ptr @proto_tree_add_item(ptr noundef %22, i32 noundef %23, ptr noundef %24, i32 noundef %25, i32 noundef %27, i32 noundef 0)
  %29 = load ptr, ptr %12, align 8
  %30 = load ptr, ptr %10, align 8
  %31 = getelementptr inbounds nuw %struct._packet_info, ptr %30, i32 0, i32 51
  %32 = load ptr, ptr %31, align 8
  %33 = load ptr, ptr %9, align 8
  %34 = load i32, ptr %17, align 4
  %35 = call ptr @tvb_address_to_str(ptr noundef %32, ptr noundef %33, i32 noundef 2, i32 noundef %34)
  call void (ptr, ptr, ...) @proto_item_append_text(ptr noundef %29, ptr noundef @.str.6, ptr noundef %35)
  br label %56

36:                                               ; preds = %8
  %37 = load i16, ptr %13, align 2
  %38 = zext i16 %37 to i32
  %39 = icmp eq i32 %38, 16
  br i1 %39, label %40, label %55

40:                                               ; preds = %36
  %41 = load ptr, ptr %11, align 8
  %42 = load i32, ptr @hf_gtpv2_ip_address_ipv6, align 4
  %43 = load ptr, ptr %9, align 8
  %44 = load i32, ptr %17, align 4
  %45 = load i16, ptr %13, align 2
  %46 = zext i16 %45 to i32
  %47 = call ptr @proto_tree_add_item(ptr noundef %41, i32 noundef %42, ptr noundef %43, i32 noundef %44, i32 noundef %46, i32 noundef 0)
  %48 = load ptr, ptr %12, align 8
  %49 = load ptr, ptr %10, align 8
  %50 = getelementptr inbounds nuw %struct._packet_info, ptr %49, i32 0, i32 51
  %51 = load ptr, ptr %50, align 8
  %52 = load ptr, ptr %9, align 8
  %53 = load i32, ptr %17, align 4
  %54 = call ptr @tvb_address_to_str(ptr noundef %51, ptr noundef %52, i32 noundef 3, i32 noundef %53)
  call void (ptr, ptr, ...) @proto_item_append_text(ptr noundef %48, ptr noundef @.str.8, ptr noundef %54)
  br label %55

55:                                               ; preds = %40, %36
  br label %56

56:                                               ; preds = %55, %21
  call void @llvm.lifetime.end.p0(i64 4, ptr %17) #11
  ret void
}