; Function Attrs: null_pointer_is_valid sspstrong uwtable
define internal void @dissect_gtpv2_ip_address(ptr noundef %0, ptr noundef readonly captures(none) %1, ptr noundef %2, ptr noundef %3, i16 noundef zeroext %4, i8 zeroext %5, i8 zeroext %6, ptr readnone captures(none) %7) #1 {
  switch i16 %4, label %15 [
    i16 4, label %.sink.split
    i16 16, label %9
  ]

9:                                                ; preds = %8
  br label %.sink.split

.sink.split:                                      ; preds = %8, %9
  %hf_gtpv2_ip_address_ipv6.sink = phi ptr [ @hf_gtpv2_ip_address_ipv6, %9 ], [ @hf_gtpv2_ip_address_ipv4, %8 ]
  %.sink19 = phi i32 [ 16, %9 ], [ 4, %8 ]
  %.sink18 = phi i32 [ 3, %9 ], [ 2, %8 ]
  %.str.8.sink = phi ptr [ @.str.8, %9 ], [ @.str.6, %8 ]
  %10 = load i32, ptr %hf_gtpv2_ip_address_ipv6.sink, align 4
  %11 = tail call ptr @proto_tree_add_item(ptr noundef %2, i32 noundef %10, ptr noundef %0, i32 noundef 0, i32 noundef %.sink19, i32 noundef 0)
  %12 = getelementptr inbounds nuw i8, ptr %1, i64 408
  %13 = load ptr, ptr %12, align 8
  %14 = tail call ptr @tvb_address_to_str(ptr noundef %13, ptr noundef %0, i32 noundef %.sink18, i32 noundef 0)
  tail call void (ptr, ptr, ...) @proto_item_append_text(ptr noundef %3, ptr noundef nonnull %.str.8.sink, ptr noundef %14)
  br label %15

15:                                               ; preds = %.sink.split, %8
  ret void
}